target datalayout = "e-m:e-p270:32:32-p271:32:32-p272:64:64-i64:64-i128:128-f80:128-n8:16:32:64-S128"
target triple = "x86_64-pc-linux-gnu"

%struct.XLogRecoveryCtlData = type { i8, i8, %struct.Latch, i64, i64, i32, i64, i32, i64, i64, i32, %struct.ConditionVariable, i8 }
%struct.Latch = type { i32, i32, i8, i32 }
%struct.ConditionVariable = type { i8, %struct.proclist_head }
%struct.proclist_head = type { i32, i32 }

@XLogRecoveryCtl = internal global ptr null, align 8
@.str.6 = private unnamed_addr constant [15 x i8] c"xlogrecovery.c\00", align 1
@__func__.GetLatestXTime = private unnamed_addr constant [15 x i8] c"GetLatestXTime\00", align 1

; Function Attrs: inlinehint nounwind uwtable
define internal i32 @tas(ptr noundef %0) #7 {
  %2 = alloca ptr, align 8
  %3 = alloca i8, align 1
  store ptr %0, ptr %2, align 8
  call void @llvm.lifetime.start.p0(i64 1, ptr %3) #14
  store i8 1, ptr %3, align 1
  %4 = load i8, ptr %3, align 1
  %5 = load ptr, ptr %2, align 8
  %6 = call i8 asm sideeffect "\09lock\09\09\09\0A\09xchgb\09$0,$1\09\0A", "=q,=*m,0,*m,~{memory},~{cc},~{dirflag},~{fpsr},~{flags}"(ptr elementtype(i8) %5, i8 %4, ptr elementtype(i8) %5) #14, !srcloc !13
  store i8 %6, ptr %3, align 1
  %7 = load i8, ptr %3, align 1
  %8 = zext i8 %7 to i32
  call void @llvm.lifetime.end.p0(i64 1, ptr %3) #14
  ret i32 %8
}

; Function Attrs: nounwind uwtable
define dso_local i64 @GetLatestXTime() #0 {
  %1 = alloca i64, align 8
  call void @llvm.lifetime.start.p0(i64 8, ptr %1) #14
  %2 = load ptr, ptr @XLogRecoveryCtl, align 8
  %3 = getelementptr inbounds nuw %struct.XLogRecoveryCtlData, ptr %2, i32 0, i32 12
  %4 = call i32 @tas(ptr noundef %3)
  %5 = icmp ne i32 %4, 0
  br i1 %5, label %6, label %10

6:                                                ; preds = %0
  %7 = load ptr, ptr @XLogRecoveryCtl, align 8
  %8 = getelementptr inbounds nuw %struct.XLogRecoveryCtlData, ptr %7, i32 0, i32 12
  %9 = call i32 @s_lock(ptr noundef %8, ptr noundef @.str.6, i32 noundef 4612, ptr noundef @__func__.GetLatestXTime)
  br label %11

10:                                               ; preds = %0
  br label %11

11:                                               ; preds = %10, %6
  %12 = load ptr, ptr @XLogRecoveryCtl, align 8
  %13 = getelementptr inbounds nuw %struct.XLogRecoveryCtlData, ptr %12, i32 0, i32 8
  %14 = load i64, ptr %13, align 8
  store i64 %14, ptr %1, align 8
  br label %15

15:                                               ; preds = %11
  call void asm sideeffect "", "~{memory},~{dirflag},~{fpsr},~{flags}"() #14, !srcloc !19
  %16 = load ptr, ptr @XLogRecoveryCtl, align 8
  %17 = getelementptr inbounds nuw %struct.XLogRecoveryCtlData, ptr %16, i32 0, i32 12
  store i8 0, ptr %17, align 8
  br label %18

18:                                               ; preds = %15
  br label %19

19:                                               ; preds = %18
  %20 = load i64, ptr %1, align 8
  call void @llvm.lifetime.end.p0(i64 8, ptr %1) #14
  ret i64 %20
}